target datalayout = "e-m:e-p270:32:32-p271:32:32-p272:64:64-i64:64-i128:128-f80:128-n8:16:32:64-S128"
target triple = "x86_64-pc-linux-gnu"

%struct.nghttp2_settings_entry = type { i32, i32 }

; Function Attrs: nounwind uwtable
define hidden i64 @nghttp2_frame_pack_settings_payload(ptr noundef %0, ptr noundef %1, i64 noundef %2) #0 {
  %4 = alloca ptr, align 8
  %5 = alloca ptr, align 8
  %6 = alloca i64, align 8
  %7 = alloca i64, align 8
  store ptr %0, ptr %4, align 8, !tbaa !3
  store ptr %1, ptr %5, align 8, !tbaa !8
  store i64 %2, ptr %6, align 8, !tbaa !18
  call void @llvm.lifetime.start.p0(i64 8, ptr %7) #7
  store i64 0, ptr %7, align 8, !tbaa !18
  br label %8

8:                                                ; preds = %27, %3
  %9 = load i64, ptr %7, align 8, !tbaa !18
  %10 = load i64, ptr %6, align 8, !tbaa !18
  %11 = icmp ult i64 %9, %10
  br i1 %11, label %12, label %32

12:                                               ; preds = %8
  %13 = load ptr, ptr %4, align 8, !tbaa !3
  %14 = load ptr, ptr %5, align 8, !tbaa !8
  %15 = load i64, ptr %7, align 8, !tbaa !18
  %16 = getelementptr inbounds nuw %struct.nghttp2_settings_entry, ptr %14, i64 %15
  %17 = getelementptr inbounds nuw %struct.nghttp2_settings_entry, ptr %16, i32 0, i32 0
  %18 = load i32, ptr %17, align 4, !tbaa !88
  %19 = trunc i32 %18 to i16
  call void @nghttp2_put_uint16be(ptr noundef %13, i16 noundef zeroext %19)
  %20 = load ptr, ptr %4, align 8, !tbaa !3
  %21 = getelementptr inbounds i8, ptr %20, i64 2
  %22 = load ptr, ptr %5, align 8, !tbaa !8
  %23 = load i64, ptr %7, align 8, !tbaa !18
  %24 = getelementptr inbounds nuw %struct.nghttp2_settings_entry, ptr %22, i64 %23
  %25 = getelementptr inbounds nuw %struct.nghttp2_settings_entry, ptr %24, i32 0, i32 1
  %26 = load i32, ptr %25, align 4, !tbaa !90
  call void @nghttp2_put_uint32be(ptr noundef %21, i32 noundef %26)
  br label %27

27:                                               ; preds = %12
  %28 = load i64, ptr %7, align 8, !tbaa !18
  %29 = add i64 %28, 1
  store i64 %29, ptr %7, align 8, !tbaa !18
  %30 = load ptr, ptr %4, align 8, !tbaa !3
  %31 = getelementptr inbounds i8, ptr %30, i64 6
  store ptr %31, ptr %4, align 8, !tbaa !3
  br label %8, !llvm.loop !91

32:                                               ; preds = %8
  %33 = load i64, ptr %6, align 8, !tbaa !18
  %34 = mul i64 6, %33
  call void @llvm.lifetime.end.p0(i64 8, ptr %7) #7
  ret i64 %34
}