; Function Attrs: nounwind uwtable
define hidden noundef i64 @nghttp2_frame_pack_settings_payload(ptr noundef %0, ptr noundef readonly captures(none) %1, i64 noundef %2) local_unnamed_addr #0 {
  %.not = icmp eq i64 %2, 0
  br i1 %.not, label %._crit_edge, label %.lr.ph

.lr.ph:                                           ; preds = %3, %.lr.ph
  %.013 = phi i64 [ %10, %.lr.ph ], [ 0, %3 ]
  %.01012 = phi ptr [ %11, %.lr.ph ], [ %0, %3 ]
  %4 = getelementptr inbounds nuw %struct.nghttp2_settings_entry, ptr %1, i64 %.013
  %5 = load i32, ptr %4, align 4, !tbaa !81
  %6 = trunc i32 %5 to i16
  tail call void @nghttp2_put_uint16be(ptr noundef %.01012, i16 noundef zeroext %6) #18
  %7 = getelementptr inbounds nuw i8, ptr %.01012, i64 2
  %8 = getelementptr inbounds nuw i8, ptr %4, i64 4
  %9 = load i32, ptr %8, align 4, !tbaa !83
  tail call void @nghttp2_put_uint32be(ptr noundef nonnull %7, i32 noundef %9) #18
  %10 = add nuw i64 %.013, 1
  %11 = getelementptr inbounds nuw i8, ptr %.01012, i64 6
  %exitcond.not = icmp eq i64 %10, %2
  br i1 %exitcond.not, label %._crit_edge, label %.lr.ph, !llvm.loop !84

._crit_edge:                                      ; preds = %.lr.ph, %3
  %12 = mul i64 %2, 6
  ret i64 %12
}